target datalayout = "e-m:e-p270:32:32-p271:32:32-p272:64:64-i64:64-i128:128-f80:128-n8:16:32:64-S128"
target triple = "x86_64-unknown-linux-gnu"

%"struct.(anonymous namespace)::bool_var_act_lt" = type { ptr }
%"class.smt::case_split_queue" = type { ptr }
%class.heap = type { %"struct.(anonymous namespace)::bool_var_act_lt", %class.svector.86, %class.svector.86 }
%class.svector.86 = type { %class.vector.87 }
%class.vector.87 = type { ptr }
%class.ptr_vector = type { %class.vector.3 }
%class.vector.3 = type { ptr }
%"class.(anonymous namespace)::rel_act_case_split_queue" = type { %"class.smt::case_split_queue", ptr, ptr, ptr, %class.ptr_vector, i32, i32, %class.heap, %class.svector.304 }
%class.svector.304 = type { %class.vector.305 }
%class.vector.305 = type { ptr }
%"struct.(anonymous namespace)::rel_act_case_split_queue::scope" = type { i32, i32 }

; Function Attrs: mustprogress nounwind uwtable
define internal void @_ZN6vectorIN12_GLOBAL__N_124rel_act_case_split_queue5scopeELb0EjE6shrinkEj(ptr noundef nonnull align 8 dereferenceable(8) %this, i32 noundef %s) #4 align 2 {
entry:
  %this.addr = alloca ptr, align 8
  %s.addr = alloca i32, align 4
  store ptr %this, ptr %this.addr, align 8
  store i32 %s, ptr %s.addr, align 4
  %this1 = load ptr, ptr %this.addr, align 8
  %m_data = getelementptr inbounds %class.vector.305, ptr %this1, i32 0, i32 0
  %0 = load ptr, ptr %m_data, align 8
  %tobool = icmp ne ptr %0, null
  br i1 %tobool, label %if.then, label %if.else

if.then:                                          ; preds = %entry
  %1 = load i32, ptr %s.addr, align 4
  %m_data2 = getelementptr inbounds %class.vector.305, ptr %this1, i32 0, i32 0
  %2 = load ptr, ptr %m_data2, align 8
  %arrayidx = getelementptr inbounds i32, ptr %2, i64 -1
  store i32 %1, ptr %arrayidx, align 4
  br label %if.end

if.else:                                          ; preds = %entry
  br label %if.end

if.end:                                           ; preds = %if.else, %if.then
  ret void
}

; Function Attrs: mustprogress nounwind uwtable
define linkonce_odr hidden void @_ZN6vectorIP4exprLb0EjE6shrinkEj(ptr noundef nonnull align 8 dereferenceable(8) %this, i32 noundef %s) #4 comdat align 2 {
entry:
  %this.addr = alloca ptr, align 8
  %s.addr = alloca i32, align 4
  store ptr %this, ptr %this.addr, align 8
  store i32 %s, ptr %s.addr, align 4
  %this1 = load ptr, ptr %this.addr, align 8
  %m_data = getelementptr inbounds %class.vector.3, ptr %this1, i32 0, i32 0
  %0 = load ptr, ptr %m_data, align 8
  %tobool = icmp ne ptr %0, null
  br i1 %tobool, label %if.then, label %if.else

if.then:                                          ; preds = %entry
  %1 = load i32, ptr %s.addr, align 4
  %m_data2 = getelementptr inbounds %class.vector.3, ptr %this1, i32 0, i32 0
  %2 = load ptr, ptr %m_data2, align 8
  %arrayidx = getelementptr inbounds i32, ptr %2, i64 -1
  store i32 %1, ptr %arrayidx, align 4
  br label %if.end

if.else:                                          ; preds = %entry
  br label %if.end

if.end:                                           ; preds = %if.else, %if.then
  ret void
}

; Function Attrs: mustprogress nounwind uwtable
define internal noundef nonnull align 4 dereferenceable(8) ptr @_ZN6vectorIN12_GLOBAL__N_124rel_act_case_split_queue5scopeELb0EjEixEj(ptr noundef nonnull align 8 dereferenceable(8) %this, i32 noundef %idx) #4 align 2 {
entry:
  %this.addr = alloca ptr, align 8
  %idx.addr = alloca i32, align 4
  store ptr %this, ptr %this.addr, align 8
  store i32 %idx, ptr %idx.addr, align 4
  %this1 = load ptr, ptr %this.addr, align 8
  %m_data = getelementptr inbounds %class.vector.305, ptr %this1, i32 0, i32 0
  %0 = load ptr, ptr %m_data, align 8
  %1 = load i32, ptr %idx.addr, align 4
  %idxprom = zext i32 %1 to i64
  %arrayidx = getelementptr inbounds %"struct.(anonymous namespace)::rel_act_case_split_queue::scope", ptr %0, i64 %idxprom
  ret ptr %arrayidx
}

; Function Attrs: mustprogress nounwind uwtable
define internal noundef i32 @_ZNK6vectorIN12_GLOBAL__N_124rel_act_case_split_queue5scopeELb0EjE4sizeEv(ptr noundef nonnull align 8 dereferenceable(8) %this) #4 align 2 {
entry:
  %retval = alloca i32, align 4
  %this.addr = alloca ptr, align 8
  store ptr %this, ptr %this.addr, align 8
  %this1 = load ptr, ptr %this.addr, align 8
  %m_data = getelementptr inbounds %class.vector.305, ptr %this1, i32 0, i32 0
  %0 = load ptr, ptr %m_data, align 8
  %cmp = icmp eq ptr %0, null
  br i1 %cmp, label %if.then, label %if.end

if.then:                                          ; preds = %entry
  store i32 0, ptr %retval, align 4
  br label %return

if.end:                                           ; preds = %entry
  %m_data2 = getelementptr inbounds %class.vector.305, ptr %this1, i32 0, i32 0
  %1 = load ptr, ptr %m_data2, align 8
  %arrayidx = getelementptr inbounds i32, ptr %1, i64 -1
  %2 = load i32, ptr %arrayidx, align 4
  store i32 %2, ptr %retval, align 4
  br label %return

return:                                           ; preds = %if.end, %if.then
  %3 = load i32, ptr %retval, align 4
  ret i32 %3
}

; Function Attrs: mustprogress uwtable
define internal void @_ZN12_GLOBAL__N_124rel_act_case_split_queue9pop_scopeEj(ptr noundef nonnull align 8 dereferenceable(80) %this, i32 noundef %num_scopes) unnamed_addr #5 align 2 {
entry:
  %this.addr = alloca ptr, align 8
  %num_scopes.addr = alloca i32, align 4
  %new_lvl = alloca i32, align 4
  %s = alloca ptr, align 8
  store ptr %this, ptr %this.addr, align 8
  store i32 %num_scopes, ptr %num_scopes.addr, align 4
  %this1 = load ptr, ptr %this.addr, align 8
  %m_scopes = getelementptr inbounds %"class.(anonymous namespace)::rel_act_case_split_queue", ptr %this1, i32 0, i32 8
  %call = call noundef i32 @_ZNK6vectorIN12_GLOBAL__N_124rel_act_case_split_queue5scopeELb0EjE4sizeEv(ptr noundef nonnull align 8 dereferenceable(8) %m_scopes)
  %0 = load i32, ptr %num_scopes.addr, align 4
  %sub = sub i32 %call, %0
  store i32 %sub, ptr %new_lvl, align 4
  %m_scopes2 = getelementptr inbounds %"class.(anonymous namespace)::rel_act_case_split_queue", ptr %this1, i32 0, i32 8
  %1 = load i32, ptr %new_lvl, align 4
  %call3 = call noundef nonnull align 4 dereferenceable(8) ptr @_ZN6vectorIN12_GLOBAL__N_124rel_act_case_split_queue5scopeELb0EjEixEj(ptr noundef nonnull align 8 dereferenceable(8) %m_scopes2, i32 noundef %1)
  store ptr %call3, ptr %s, align 8
  %m_queue = getelementptr inbounds %"class.(anonymous namespace)::rel_act_case_split_queue", ptr %this1, i32 0, i32 4
  %2 = load ptr, ptr %s, align 8
  %m_queue_trail = getelementptr inbounds %"struct.(anonymous namespace)::rel_act_case_split_queue::scope", ptr %2, i32 0, i32 0
  %3 = load i32, ptr %m_queue_trail, align 4
  call void @_ZN6vectorIP4exprLb0EjE6shrinkEj(ptr noundef nonnull align 8 dereferenceable(8) %m_queue, i32 noundef %3)
  %4 = load ptr, ptr %s, align 8
  %m_head_old = getelementptr inbounds %"struct.(anonymous namespace)::rel_act_case_split_queue::scope", ptr %4, i32 0, i32 1
  %5 = load i32, ptr %m_head_old, align 4
  %m_head = getelementptr inbounds %"class.(anonymous namespace)::rel_act_case_split_queue", ptr %this1, i32 0, i32 5
  store i32 %5, ptr %m_head, align 8
  %m_scopes4 = getelementptr inbounds %"class.(anonymous namespace)::rel_act_case_split_queue", ptr %this1, i32 0, i32 8
  %6 = load i32, ptr %new_lvl, align 4
  call void @_ZN6vectorIN12_GLOBAL__N_124rel_act_case_split_queue5scopeELb0EjE6shrinkEj(ptr noundef nonnull align 8 dereferenceable(8) %m_scopes4, i32 noundef %6)
  ret void
}