; Function Attrs: mustprogress nofree norecurse nosync nounwind willreturn memory(readwrite, inaccessiblemem: none) uwtable
define internal void @_ZN12_GLOBAL__N_124rel_act_case_split_queue9pop_scopeEj(ptr nocapture noundef nonnull align 8 dereferenceable(80) %this, i32 noundef %num_scopes) unnamed_addr #17 align 2 {
entry:
  %m_scopes = getelementptr inbounds i8, ptr %this, i64 72
  %m_scopes.val = load ptr, ptr %m_scopes, align 8
  %cmp.i = icmp eq ptr %m_scopes.val, null
  br i1 %cmp.i, label %_ZNK6vectorIN12_GLOBAL__N_124rel_act_case_split_queue5scopeELb0EjE4sizeEv.exit, label %if.end.i

if.end.i:                                         ; preds = %entry
  %arrayidx.i = getelementptr inbounds i8, ptr %m_scopes.val, i64 -4
  %0 = load i32, ptr %arrayidx.i, align 4
  br label %_ZNK6vectorIN12_GLOBAL__N_124rel_act_case_split_queue5scopeELb0EjE4sizeEv.exit

_ZNK6vectorIN12_GLOBAL__N_124rel_act_case_split_queue5scopeELb0EjE4sizeEv.exit: ; preds = %entry, %if.end.i
  %retval.0.i = phi i32 [ %0, %if.end.i ], [ 0, %entry ]
  %sub = sub i32 %retval.0.i, %num_scopes
  %idxprom.i = zext i32 %sub to i64
  %arrayidx.i5 = getelementptr inbounds %"struct.(anonymous namespace)::rel_act_case_split_queue::scope", ptr %m_scopes.val, i64 %idxprom.i
  %m_queue = getelementptr inbounds i8, ptr %this, i64 32
  %1 = load ptr, ptr %m_queue, align 8
  %tobool.not.i = icmp eq ptr %1, null
  br i1 %tobool.not.i, label %_ZN6vectorIP4exprLb0EjE6shrinkEj.exit.thread, label %_ZN6vectorIP4exprLb0EjE6shrinkEj.exit

_ZN6vectorIP4exprLb0EjE6shrinkEj.exit.thread:     ; preds = %_ZNK6vectorIN12_GLOBAL__N_124rel_act_case_split_queue5scopeELb0EjE4sizeEv.exit
  %m_head_old14 = getelementptr inbounds i8, ptr %arrayidx.i5, i64 4
  %2 = load i32, ptr %m_head_old14, align 4
  %m_head15 = getelementptr inbounds i8, ptr %this, i64 40
  store i32 %2, ptr %m_head15, align 8
  br label %if.then.i9

_ZN6vectorIP4exprLb0EjE6shrinkEj.exit:            ; preds = %_ZNK6vectorIN12_GLOBAL__N_124rel_act_case_split_queue5scopeELb0EjE4sizeEv.exit
  %3 = load i32, ptr %arrayidx.i5, align 4
  %arrayidx.i6 = getelementptr inbounds i8, ptr %1, i64 -4
  store i32 %3, ptr %arrayidx.i6, align 4
  %m_scopes.val4.pre = load ptr, ptr %m_scopes, align 8
  %m_head_old = getelementptr inbounds i8, ptr %arrayidx.i5, i64 4
  %4 = load i32, ptr %m_head_old, align 4
  %m_head = getelementptr inbounds i8, ptr %this, i64 40
  store i32 %4, ptr %m_head, align 8
  %tobool.not.i8 = icmp eq ptr %m_scopes.val4.pre, null
  br i1 %tobool.not.i8, label %_ZN6vectorIN12_GLOBAL__N_124rel_act_case_split_queue5scopeELb0EjE6shrinkEj.exit, label %if.then.i9

if.then.i9:                                       ; preds = %_ZN6vectorIP4exprLb0EjE6shrinkEj.exit.thread, %_ZN6vectorIP4exprLb0EjE6shrinkEj.exit
  %m_scopes.val417 = phi ptr [ %m_scopes.val, %_ZN6vectorIP4exprLb0EjE6shrinkEj.exit.thread ], [ %m_scopes.val4.pre, %_ZN6vectorIP4exprLb0EjE6shrinkEj.exit ]
  %arrayidx.i10 = getelementptr inbounds i8, ptr %m_scopes.val417, i64 -4
  store i32 %sub, ptr %arrayidx.i10, align 4
  br label %_ZN6vectorIN12_GLOBAL__N_124rel_act_case_split_queue5scopeELb0EjE6shrinkEj.exit

_ZN6vectorIN12_GLOBAL__N_124rel_act_case_split_queue5scopeELb0EjE6shrinkEj.exit: ; preds = %_ZN6vectorIP4exprLb0EjE6shrinkEj.exit, %if.then.i9
  ret void
}